Certificate:
    Data:
        Version: 3 (0x2)
        Serial Number:
            45:36:bc:64:f8:df:41:e8:a2:da:31:12:a1:90:7d:66
        Signature Algorithm: sha256WithRSAEncryption
        Issuer: CN=abc123
        Validity
            Not Before: Feb 29 04:18:32 2020 GMT
            Not After : Feb 13 04:18:32 2023 GMT
        Subject: CN=centos7
        Subject Public Key Info:
            Public Key Algorithm: rsaEncryption
                RSA Public-Key: (2048 bit)
                Modulus:
                    00:bc:80:fb:32:e2:97:04:3a:52:62:3a:67:52:2d:
                    c4:b9:7d:41:99:1c:bf:fb:c7:e8:7f:5e:d7:7e:13:
                    b8:4e:c6:b2:59:98:52:9b:ff:a8:ef:b5:4a:33:ac:
                    22:18:34:35:41:23:68:89:bf:7a:d8:14:7d:74:f0:
                    c5:48:67:a6:bf:14:52:5d:08:69:a2:79:d2:f6:8d:
                    f8:10:0b:dc:a8:cc:dc:de:90:b3:33:d8:ca:57:07:
                    f0:4a:a4:79:f4:c8:28:2d:8e:de:bb:88:4d:e0:06:
                    69:7f:8b:33:94:c4:a9:f7:4e:ef:94:f5:20:b7:66:
                    a3:8d:69:88:2f:3c:ab:2b:2b:91:5d:62:96:4e:a7:
                    7f:32:55:86:8c:8f:94:a0:4b:23:e3:54:aa:20:1e:
                    d9:86:e0:ff:c7:5b:db:ed:ab:a4:63:00:be:b5:95:
                    3c:67:24:ed:17:cf:6e:c8:4d:ff:f1:ce:62:bf:a3:
                    7c:3f:f2:ac:02:59:f2:d5:c2:d2:4a:c1:e3:45:34:
                    f6:45:fb:f0:ce:78:e2:be:09:10:f4:66:5c:c4:39:
                    7f:ea:aa:2a:11:ee:fa:4a:58:84:c3:5e:06:9f:47:
                    25:a4:d6:de:4e:00:fc:af:da:e3:68:78:81:c8:69:
                    27:65:ce:c1:63:10:b1:35:1e:0d:81:41:4a:14:62:
                    35:73
                Exponent: 65537 (0x10001)
        X509v3 extensions:
            X509v3 Basic Constraints: 
                CA:FALSE
            X509v3 Subject Key Identifier: 
                E6:76:FA:CB:39:F6:1E:68:0D:1B:78:90:F2:E9:F3:47:CD:F3:F4:2C
            X509v3 Authority Key Identifier: 
                keyid:DD:DF:0A:C0:49:85:DB:0F:FE:D3:20:F1:46:C0:1A:97:C6:F3:60:75
                DirName:/CN=abc123
                serial:44:CC:9D:83:49:BF:B9:9F:B9:98:AF:B2:B5:BA:C6:3D:0D:39:D2:38

            X509v3 Extended Key Usage: 
                TLS Web Server Authentication
            X509v3 Key Usage: 
                Digital Signature, Key Encipherment
            X509v3 Subject Alternative Name: 
                DNS:centos7
    Signature Algorithm: sha256WithRSAEncryption
         c6:77:57:5c:08:9e:aa:9f:e9:af:a6:54:3b:4f:34:7a:51:9a:
         dd:6d:d2:6e:de:17:16:c6:c3:51:7f:23:49:45:0e:8b:c3:70:
         eb:d0:6e:1d:a6:f0:86:37:91:39:45:16:9e:12:c4:26:2c:0b:
         e1:5c:1d:ac:47:40:f3:91:dc:b6:89:f0:9a:12:30:a5:ac:c2:
         98:45:9d:db:38:12:5f:ad:64:b7:87:17:6e:0f:ee:fe:93:30:
         b5:24:d0:1c:be:0d:e2:08:d3:08:bc:85:6e:e3:17:ae:29:2a:
         66:9e:99:fa:40:8f:31:b6:04:96:39:0c:e2:2b:3d:a0:a4:27:
         3c:f5:57:4c:48:ff:19:5a:32:dd:19:1e:10:1a:7c:83:ef:e3:
         54:15:de:d4:55:a8:2f:1e:79:2d:3d:10:bd:94:54:ac:b6:84:
         ad:8b:1d:91:ee:00:6f:4c:5b:3b:b8:f0:71:b0:d4:0a:85:06:
         21:a6:fc:d4:f4:0d:20:5e:61:95:b9:be:ff:8c:b0:f2:0d:39:
         0a:23:d0:fa:3c:49:17:cd:aa:b0:38:42:7a:f8:09:45:79:98:
         02:73:62:75:3f:a4:78:4f:01:bd:85:36:14:c5:3c:45:0c:4a:
         fe:83:f3:fc:8d:9a:ac:f4:aa:62:42:bd:9f:6e:44:f7:8a:58:
         69:82:96:16
-----BEGIN CERTIFICATE-----
MIIDXzCCAkegAwIBAgIQRTa8ZPjfQeii2jESoZB9ZjANBgkqhkiG9w0BAQsFADAR
MQ8wDQYDVQQDDAZhYmMxMjMwHhcNMjAwMjI5MDQxODMyWhcNMjMwMjEzMDQxODMy
WjASMRAwDgYDVQQDDAdjZW50b3M3MIIBIjANBgkqhkiG9w0BAQEFAAOCAQ8AMIIB
CgKCAQEAvID7MuKXBDpSYjpnUi3EuX1BmRy/+8fof17XfhO4TsayWZhSm/+o77VK
M6wiGDQ1QSNoib962BR9dPDFSGemvxRSXQhponnS9o34EAvcqMzc3pCzM9jKVwfw
SqR59MgoLY7eu4hN4AZpf4szlMSp907vlPUgt2ajjWmILzyrKyuRXWKWTqd/MlWG
jI+UoEsj41SqIB7ZhuD/x1vb7aukYwC+tZU8ZyTtF89uyE3/8c5iv6N8P/KsAlny
1cLSSsHjRTT2RfvwznjivgkQ9GZcxDl/6qoqEe76SliEw14Gn0clpNbeTgD8r9rj
aHiByGknZc7BYxCxNR4NgUFKFGI1cwIDAQABo4GxMIGuMAkGA1UdEwQCMAAwHQYD
VR0OBBYEFOZ2+ss59h5oDRt4kPLp80fN8/QsMEwGA1UdIwRFMEOAFN3fCsBJhdsP
/tMg8UbAGpfG82B1oRWkEzARMQ8wDQYDVQQDDAZhYmMxMjOCFETMnYNJv7mfuZiv
srW6xj0NOdI4MBMGA1UdJQQMMAoGCCsGAQUFBwMBMAsGA1UdDwQEAwIFoDASBgNV
HREECzAJggdjZW50b3M3MA0GCSqGSIb3DQEBCwUAA4IBAQDGd1dcCJ6qn+mvplQ7
TzR6UZrdbdJu3hcWxsNRfyNJRQ6Lw3Dr0G4dpvCGN5E5RRaeEsQmLAvhXB2sR0Dz
kdy2ifCaEjClrMKYRZ3bOBJfrWS3hxduD+7+kzC1JNAcvg3iCNMIvIVu4xeuKSpm
npn6QI8xtgSWOQziKz2gpCc89VdMSP8ZWjLdGR4QGnyD7+NUFd7UVagvHnktPRC9
lFSstoStix2R7gBvTFs7uPBxsNQKhQYhpvzU9A0gXmGVub7/jLDyDTkKI9D6PEkX
zaqwOEJ6+AlFeZgCc2J1P6R4TwG9hTYUxTxFDEr+g/P8jZqs9KpiQr2fbkT3ilhp
gpYW
-----END CERTIFICATE-----
