Certificate:
    Data:
        Version: 3 (0x2)
        Serial Number:
            e8:c1:1f:c2:ba:b0:9e:e2:11:91:3a:48:e3:06:4b:c3
        Signature Algorithm: sha256WithRSAEncryption
        Issuer: CN=abc123
        Validity
            Not Before: Feb 29 04:20:34 2020 GMT
            Not After : Feb 13 04:20:34 2023 GMT
        Subject: CN=your_client_name
        Subject Public Key Info:
            Public Key Algorithm: rsaEncryption
                RSA Public-Key: (2048 bit)
                Modulus:
                    00:a6:37:10:bd:6f:cc:00:6d:b5:0c:63:7e:4d:b1:
                    f0:b2:9d:00:da:78:80:9a:2a:47:da:00:ed:b9:7b:
                    5f:83:13:9b:ce:39:fe:9a:65:18:76:3a:49:71:84:
                    92:45:2b:ef:ab:da:5a:ef:7b:06:5f:c6:ee:fe:57:
                    86:7f:7a:d7:bf:96:4c:35:b6:ba:9a:a0:43:c8:ac:
                    35:32:e3:07:f8:16:fa:9d:22:8b:ba:2e:d9:a1:d9:
                    f9:d3:7c:69:9a:c7:a8:2a:62:d3:1c:06:44:27:fd:
                    1d:d0:cf:26:41:07:8c:6d:fb:9c:0a:01:ef:a3:8d:
                    34:71:4d:7f:94:63:a3:94:0e:07:19:1a:7d:91:88:
                    b9:04:ee:56:e7:7f:50:7c:96:ef:aa:e1:79:22:49:
                    74:36:ff:7a:a1:99:6c:16:c8:6f:b8:f8:93:12:84:
                    dc:17:07:f9:19:19:b7:e1:35:a3:dc:74:33:06:6d:
                    24:d7:5c:be:7f:d5:89:3a:5f:eb:17:c5:30:d6:b3:
                    5b:d9:da:9c:9a:a2:fc:9f:9d:bc:db:25:cf:3f:a9:
                    87:5a:0a:d9:46:d1:6e:f1:9e:e0:25:29:ca:e7:b8:
                    41:37:c1:d5:79:13:dd:d4:ac:0e:88:0d:dd:fd:85:
                    05:53:dd:8d:af:56:24:13:25:f3:b5:4d:b2:8f:6b:
                    fa:8b
                Exponent: 65537 (0x10001)
        X509v3 extensions:
            X509v3 Basic Constraints: 
                CA:FALSE
            X509v3 Subject Key Identifier: 
                A7:A5:82:B6:A7:55:B5:00:1B:AE:2C:AC:2B:A9:DD:37:4F:87:2D:20
            X509v3 Authority Key Identifier: 
                keyid:DD:DF:0A:C0:49:85:DB:0F:FE:D3:20:F1:46:C0:1A:97:C6:F3:60:75
                DirName:/CN=abc123
                serial:44:CC:9D:83:49:BF:B9:9F:B9:98:AF:B2:B5:BA:C6:3D:0D:39:D2:38

            X509v3 Extended Key Usage: 
                TLS Web Client Authentication
            X509v3 Key Usage: 
                Digital Signature
    Signature Algorithm: sha256WithRSAEncryption
         9a:af:ee:b0:ae:f1:29:28:e9:a0:92:f4:e7:09:ad:e1:65:e6:
         f5:f9:2a:74:63:8a:71:6f:55:d0:74:b4:5f:da:06:ac:3b:eb:
         8c:af:b6:7a:d7:0f:56:95:0c:d4:c0:94:ff:6d:c7:e4:6d:eb:
         53:d5:50:a3:19:62:ff:08:cf:ee:57:0f:5f:96:d3:50:30:db:
         ff:d2:25:8b:69:80:cc:9a:d8:51:0d:1e:44:79:40:ab:2b:c3:
         04:63:59:13:ec:5b:5b:1d:fd:48:bb:8d:c4:b3:38:1d:6f:9d:
         8b:1c:9d:b5:d7:a1:a0:39:f4:54:49:c9:b4:41:94:f1:f1:6b:
         d1:d9:b6:75:18:81:84:27:82:e3:ef:42:07:12:3e:45:2f:6c:
         26:cd:14:d6:29:7a:db:28:cb:84:4a:c3:df:69:05:6a:0d:84:
         44:14:1b:3c:f5:bb:77:8c:59:f7:72:87:8a:02:ea:0c:98:d4:
         61:61:af:ed:d0:7b:a8:61:09:b0:98:31:fe:d9:66:73:49:52:
         71:de:f5:be:95:6f:4e:39:e6:aa:84:84:44:4d:7e:b1:16:30:
         07:ee:7d:59:02:b4:d5:36:f4:aa:bf:87:30:7d:50:e7:a0:bf:
         24:4f:7b:b7:0c:c0:2f:82:0b:bf:9a:82:c6:a7:7e:1a:d0:ed:
         69:61:72:0a
-----BEGIN CERTIFICATE-----
MIIDVTCCAj2gAwIBAgIRAOjBH8K6sJ7iEZE6SOMGS8MwDQYJKoZIhvcNAQELBQAw
ETEPMA0GA1UEAwwGYWJjMTIzMB4XDTIwMDIyOTA0MjAzNFoXDTIzMDIxMzA0MjAz
NFowGzEZMBcGA1UEAwwQeW91cl9jbGllbnRfbmFtZTCCASIwDQYJKoZIhvcNAQEB
BQADggEPADCCAQoCggEBAKY3EL1vzABttQxjfk2x8LKdANp4gJoqR9oA7bl7X4MT
m845/pplGHY6SXGEkkUr76vaWu97Bl/G7v5Xhn9617+WTDW2upqgQ8isNTLjB/gW
+p0ii7ou2aHZ+dN8aZrHqCpi0xwGRCf9HdDPJkEHjG37nAoB76ONNHFNf5Rjo5QO
BxkafZGIuQTuVud/UHyW76rheSJJdDb/eqGZbBbIb7j4kxKE3BcH+RkZt+E1o9x0
MwZtJNdcvn/ViTpf6xfFMNazW9nanJqi/J+dvNslzz+ph1oK2UbRbvGe4CUpyue4
QTfB1XkT3dSsDogN3f2FBVPdja9WJBMl87VNso9r+osCAwEAAaOBnTCBmjAJBgNV
HRMEAjAAMB0GA1UdDgQWBBSnpYK2p1W1ABuuLKwrqd03T4ctIDBMBgNVHSMERTBD
gBTd3wrASYXbD/7TIPFGwBqXxvNgdaEVpBMwETEPMA0GA1UEAwwGYWJjMTIzghRE
zJ2DSb+5n7mYr7K1usY9DTnSODATBgNVHSUEDDAKBggrBgEFBQcDAjALBgNVHQ8E
BAMCB4AwDQYJKoZIhvcNAQELBQADggEBAJqv7rCu8Sko6aCS9OcJreFl5vX5KnRj
inFvVdB0tF/aBqw764yvtnrXD1aVDNTAlP9tx+Rt61PVUKMZYv8Iz+5XD1+W01Aw
2//SJYtpgMya2FENHkR5QKsrwwRjWRPsW1sd/Ui7jcSzOB1vnYscnbXXoaA59FRJ
ybRBlPHxa9HZtnUYgYQnguPvQgcSPkUvbCbNFNYpetsoy4RKw99pBWoNhEQUGzz1
u3eMWfdyh4oC6gyY1GFhr+3Qe6hhCbCYMf7ZZnNJUnHe9b6Vb0455qqEhERNfrEW
MAfufVkCtNU29Kq/hzB9UOegvyRPe7cMwC+CC7+agsanfhrQ7Wlhcgo=
-----END CERTIFICATE-----
